target datalayout = "e-m:e-p270:32:32-p271:32:32-p272:64:64-i64:64-i128:128-f80:128-n8:16:32:64-S128"
target triple = "x86_64-unknown-linux-gnu"

%struct.zlib_data = type { %struct.z_stream_s, ptr, i32, ptr }
%struct.z_stream_s = type { ptr, i32, i64, ptr, i32, i64, ptr, ptr, ptr, ptr, ptr, i32, i64, i64 }
%struct.MultiFDSendParams = type { i8, ptr, %struct.QemuThread, ptr, i8, i32, i32, i32, i32, %struct.QemuSemaphore, %struct.QemuSemaphore, %struct.QemuMutex, i8, i8, i32, i64, i32, ptr, ptr, i32, i64, i64, ptr, i32, ptr, i32, ptr }
%struct.QemuThread = type { i64 }
%struct.QemuSemaphore = type { %struct.QemuMutex, %struct.QemuCond, i32 }
%struct.QemuCond = type { %union.pthread_cond_t, i8 }
%union.pthread_cond_t = type { %struct.__pthread_cond_s }
%struct.__pthread_cond_s = type { %union.__atomic_wide_counter, %union.__atomic_wide_counter, [2 x i32], [2 x i32], i32, i32, [2 x i32] }
%union.__atomic_wide_counter = type { i64 }
%struct.QemuMutex = type { %union.pthread_mutex_t, i8 }
%union.pthread_mutex_t = type { %struct.__pthread_mutex_s }
%struct.__pthread_mutex_s = type { i32, i32, i32, i32, i32, i16, i16, %struct.__pthread_internal_list }
%struct.__pthread_internal_list = type { ptr, ptr }

; Function Attrs: nounwind sspstrong uwtable
define internal void @zlib_send_cleanup(ptr noundef %p, ptr noundef %errp) #0 {
entry:
  %p.addr = alloca ptr, align 8
  %errp.addr = alloca ptr, align 8
  %z = alloca ptr, align 8
  store ptr %p, ptr %p.addr, align 8
  store ptr %errp, ptr %errp.addr, align 8
  %0 = load ptr, ptr %p.addr, align 8
  %data = getelementptr inbounds %struct.MultiFDSendParams, ptr %0, i32 0, i32 26
  %1 = load ptr, ptr %data, align 8
  store ptr %1, ptr %z, align 8
  %2 = load ptr, ptr %z, align 8
  %zs = getelementptr inbounds %struct.zlib_data, ptr %2, i32 0, i32 0
  %call = call i32 @deflateEnd(ptr noundef %zs)
  %3 = load ptr, ptr %z, align 8
  %zbuff = getelementptr inbounds %struct.zlib_data, ptr %3, i32 0, i32 1
  %4 = load ptr, ptr %zbuff, align 8
  call void @g_free(ptr noundef %4)
  %5 = load ptr, ptr %z, align 8
  %zbuff1 = getelementptr inbounds %struct.zlib_data, ptr %5, i32 0, i32 1
  store ptr null, ptr %zbuff1, align 8
  %6 = load ptr, ptr %z, align 8
  %buf = getelementptr inbounds %struct.zlib_data, ptr %6, i32 0, i32 3
  %7 = load ptr, ptr %buf, align 8
  call void @g_free(ptr noundef %7)
  %8 = load ptr, ptr %z, align 8
  %buf2 = getelementptr inbounds %struct.zlib_data, ptr %8, i32 0, i32 3
  store ptr null, ptr %buf2, align 8
  %9 = load ptr, ptr %p.addr, align 8
  %data3 = getelementptr inbounds %struct.MultiFDSendParams, ptr %9, i32 0, i32 26
  %10 = load ptr, ptr %data3, align 8
  call void @g_free(ptr noundef %10)
  %11 = load ptr, ptr %p.addr, align 8
  %data4 = getelementptr inbounds %struct.MultiFDSendParams, ptr %11, i32 0, i32 26
  store ptr null, ptr %data4, align 8
  ret void
}