; Function Attrs: nounwind sspstrong uwtable
define internal void @zlib_send_cleanup(ptr noundef captures(none) %p, ptr readnone captures(none) %errp) #0 {
entry:
  %data = getelementptr inbounds nuw i8, ptr %p, i64 424
  %0 = load ptr, ptr %data, align 8
  %call = tail call i32 @deflateEnd(ptr noundef %0) #6
  %zbuff = getelementptr inbounds nuw i8, ptr %0, i64 112
  %1 = load ptr, ptr %zbuff, align 8
  tail call void @g_free(ptr noundef %1) #6
  store ptr null, ptr %zbuff, align 8
  %buf = getelementptr inbounds nuw i8, ptr %0, i64 128
  %2 = load ptr, ptr %buf, align 8
  tail call void @g_free(ptr noundef %2) #6
  store ptr null, ptr %buf, align 8
  %3 = load ptr, ptr %data, align 8
  tail call void @g_free(ptr noundef %3) #6
  store ptr null, ptr %data, align 8
  ret void
}